target datalayout = "e-m:e-p270:32:32-p271:32:32-p272:64:64-i64:64-i128:128-f80:128-n8:16:32:64-S128"
target triple = "x86_64-pc-linux-gnu"

%"class.std::__cxx11::basic_string" = type { %"struct.std::__cxx11::basic_string<char>::_Alloc_hider", i64, %union.anon }
%"struct.std::__cxx11::basic_string<char>::_Alloc_hider" = type { ptr }
%union.anon = type { i64, [8 x i8] }
%"class.std::__shared_count" = type { ptr }
%struct.PJconsts = type <{ ptr, ptr, ptr, ptr, ptr, ptr, ptr, ptr, ptr, ptr, ptr, ptr, i32, [4 x i8], ptr, ptr, ptr, ptr, ptr, ptr, ptr, ptr, double, double, double, double, double, double, double, double, double, double, double, double, double, double, double, double, double, double, double, double, double, double, i32, i32, i32, i32, i32, i32, i32, i32, i32, i32, i32, [4 x i8], ptr, ptr, ptr, ptr, ptr, ptr, double, double, double, double, double, double, double, double, double, double, double, i32, [4 x i8], [7 x double], i32, [4 x i8], ptr, ptr, double, double, i32, [4 x i8], %"class.std::shared_ptr.4", i8, [7 x i8], double, i8, [7 x i8], %"class.std::__cxx11::basic_string", %"class.std::__cxx11::basic_string", %"class.std::__cxx11::basic_string", i8, [7 x i8], %"class.std::vector.42", i32, [4 x i8], %"class.std::vector.47", i32, i8, i8, i8, i8 }>
%"class.std::shared_ptr.4" = type { %"class.std::__shared_ptr.5" }
%"class.std::__shared_ptr.5" = type { ptr, %"class.std::__shared_count" }
%"class.std::vector.42" = type { %"struct.std::_Vector_base.43" }
%"struct.std::_Vector_base.43" = type { %"struct.std::_Vector_base<osgeo::proj::operation::GridDescription, std::allocator<osgeo::proj::operation::GridDescription>>::_Vector_impl" }
%"struct.std::_Vector_base<osgeo::proj::operation::GridDescription, std::allocator<osgeo::proj::operation::GridDescription>>::_Vector_impl" = type { %"struct.std::_Vector_base<osgeo::proj::operation::GridDescription, std::allocator<osgeo::proj::operation::GridDescription>>::_Vector_impl_data" }
%"struct.std::_Vector_base<osgeo::proj::operation::GridDescription, std::allocator<osgeo::proj::operation::GridDescription>>::_Vector_impl_data" = type { ptr, ptr, ptr }
%"class.std::vector.47" = type { %"struct.std::_Vector_base.48" }
%"struct.std::_Vector_base.48" = type { %"struct.std::_Vector_base<PJCoordOperation, std::allocator<PJCoordOperation>>::_Vector_impl" }
%"struct.std::_Vector_base<PJCoordOperation, std::allocator<PJCoordOperation>>::_Vector_impl" = type { %"struct.std::_Vector_base<PJCoordOperation, std::allocator<PJCoordOperation>>::_Vector_impl_data" }
%"struct.std::_Vector_base<PJCoordOperation, std::allocator<PJCoordOperation>>::_Vector_impl_data" = type { ptr, ptr, ptr }

@_ZTIN5osgeo4proj4util10BaseObjectE = external constant ptr
@.str.2 = private unnamed_addr constant [23 x i8] c"missing required input\00", align 1
@__FUNCTION__.proj_dynamic_datum_get_frame_reference_epoch = private unnamed_addr constant [45 x i8] c"proj_dynamic_datum_get_frame_reference_epoch\00", align 1
@_ZTIN5osgeo4proj5datum29DynamicGeodeticReferenceFrameE = external constant ptr
@_ZTIN5osgeo4proj5datum29DynamicVerticalReferenceFrameE = external constant ptr
@.str.76 = private unnamed_addr constant [79 x i8] c"Object is not a DynamicGeodeticReferenceFrame or DynamicVerticalReferenceFrame\00", align 1

; Function Attrs: mustprogress nounwind uwtable
define linkonce_odr noundef ptr @_ZNKSt12__shared_ptrIN5osgeo4proj4util10BaseObjectELN9__gnu_cxx12_Lock_policyE2EE3getEv(ptr noundef nonnull align 8 dereferenceable(16) %0) #0 comdat align 2 {
  %2 = alloca ptr, align 8
  store ptr %0, ptr %2, align 8
  %3 = load ptr, ptr %2, align 8
  %4 = getelementptr inbounds %"class.std::__shared_ptr.5", ptr %3, i32 0, i32 0
  %5 = load ptr, ptr %4, align 8
  ret ptr %5
}

; Function Attrs: mustprogress uwtable
define double @proj_dynamic_datum_get_frame_reference_epoch(ptr noundef %0, ptr noundef %1) #2 {
  %3 = alloca double, align 8
  %4 = alloca ptr, align 8
  %5 = alloca ptr, align 8
  %6 = alloca ptr, align 8
  %7 = alloca ptr, align 8
  %8 = alloca ptr, align 8
  store ptr %0, ptr %4, align 8
  store ptr %1, ptr %5, align 8
  br label %9

9:                                                ; preds = %2
  %10 = load ptr, ptr %4, align 8
  %11 = icmp eq ptr %10, null
  br i1 %11, label %12, label %14

12:                                               ; preds = %9
  %13 = call noundef ptr @_Z18pj_get_default_ctxv()
  store ptr %13, ptr %4, align 8
  br label %14

14:                                               ; preds = %12, %9
  br label %15

15:                                               ; preds = %14
  %16 = load ptr, ptr %5, align 8
  %17 = icmp ne ptr %16, null
  br i1 %17, label %21, label %18

18:                                               ; preds = %15
  %19 = load ptr, ptr %4, align 8
  call void @_Z22proj_context_errno_setP6pj_ctxi(ptr noundef %19, i32 noundef 4097)
  %20 = load ptr, ptr %4, align 8
  call void @_ZL14proj_log_errorP6pj_ctxPKcS2_(ptr noundef %20, ptr noundef @__FUNCTION__.proj_dynamic_datum_get_frame_reference_epoch, ptr noundef @.str.2)
  store double -1.000000e+00, ptr %3, align 8
  br label %60

21:                                               ; preds = %15
  %22 = load ptr, ptr %5, align 8
  %23 = getelementptr inbounds %struct.PJconsts, ptr %22, i32 0, i32 84
  %24 = call noundef ptr @_ZNKSt12__shared_ptrIN5osgeo4proj4util10BaseObjectELN9__gnu_cxx12_Lock_policyE2EE3getEv(ptr noundef nonnull align 8 dereferenceable(16) %23) #19
  %25 = icmp eq ptr %24, null
  br i1 %25, label %28, label %26

26:                                               ; preds = %21
  %27 = call ptr @__dynamic_cast(ptr %24, ptr @_ZTIN5osgeo4proj4util10BaseObjectE, ptr @_ZTIN5osgeo4proj5datum29DynamicGeodeticReferenceFrameE, i64 0) #19
  br label %29

28:                                               ; preds = %21
  br label %29

29:                                               ; preds = %28, %26
  %30 = phi ptr [ %27, %26 ], [ null, %28 ]
  store ptr %30, ptr %6, align 8
  %31 = load ptr, ptr %5, align 8
  %32 = getelementptr inbounds %struct.PJconsts, ptr %31, i32 0, i32 84
  %33 = call noundef ptr @_ZNKSt12__shared_ptrIN5osgeo4proj4util10BaseObjectELN9__gnu_cxx12_Lock_policyE2EE3getEv(ptr noundef nonnull align 8 dereferenceable(16) %32) #19
  %34 = icmp eq ptr %33, null
  br i1 %34, label %37, label %35

35:                                               ; preds = %29
  %36 = call ptr @__dynamic_cast(ptr %33, ptr @_ZTIN5osgeo4proj4util10BaseObjectE, ptr @_ZTIN5osgeo4proj5datum29DynamicVerticalReferenceFrameE, i64 0) #19
  br label %38

37:                                               ; preds = %29
  br label %38

38:                                               ; preds = %37, %35
  %39 = phi ptr [ %36, %35 ], [ null, %37 ]
  store ptr %39, ptr %7, align 8
  %40 = load ptr, ptr %6, align 8
  %41 = icmp ne ptr %40, null
  br i1 %41, label %47, label %42

42:                                               ; preds = %38
  %43 = load ptr, ptr %7, align 8
  %44 = icmp ne ptr %43, null
  br i1 %44, label %47, label %45

45:                                               ; preds = %42
  %46 = load ptr, ptr %4, align 8
  call void @_ZL14proj_log_errorP6pj_ctxPKcS2_(ptr noundef %46, ptr noundef @__FUNCTION__.proj_dynamic_datum_get_frame_reference_epoch, ptr noundef @.str.76)
  store double -1.000000e+00, ptr %3, align 8
  br label %60

47:                                               ; preds = %42, %38
  %48 = load ptr, ptr %6, align 8
  %49 = icmp ne ptr %48, null
  br i1 %49, label %50, label %53

50:                                               ; preds = %47
  %51 = load ptr, ptr %6, align 8
  %52 = call noundef nonnull align 8 dereferenceable(24) ptr @_ZNK5osgeo4proj5datum29DynamicGeodeticReferenceFrame19frameReferenceEpochEv(ptr noundef nonnull align 8 dereferenceable(80) %51)
  br label %56

53:                                               ; preds = %47
  %54 = load ptr, ptr %7, align 8
  %55 = call noundef nonnull align 8 dereferenceable(24) ptr @_ZNK5osgeo4proj5datum29DynamicVerticalReferenceFrame19frameReferenceEpochEv(ptr noundef nonnull align 8 dereferenceable(80) %54)
  br label %56

56:                                               ; preds = %53, %50
  %57 = phi ptr [ %52, %50 ], [ %55, %53 ]
  store ptr %57, ptr %8, align 8
  %58 = load ptr, ptr %8, align 8
  %59 = call noundef double @_ZNK5osgeo4proj6common7Measure5valueEv(ptr noundef nonnull align 8 dereferenceable(24) %58) #6
  store double %59, ptr %3, align 8
  br label %60

60:                                               ; preds = %56, %45, %18
  %61 = load double, ptr %3, align 8
  ret double %61
}