; Function Attrs: mustprogress uwtable
define noundef double @proj_dynamic_datum_get_frame_reference_epoch(ptr noundef %0, ptr noundef readonly %1) local_unnamed_addr #2 {
  %3 = icmp eq ptr %0, null
  br i1 %3, label %4, label %6

4:                                                ; preds = %2
  %5 = tail call noundef ptr @_Z18pj_get_default_ctxv()
  br label %6

6:                                                ; preds = %2, %4
  %.015 = phi ptr [ %5, %4 ], [ %0, %2 ]
  %.not = icmp eq ptr %1, null
  br i1 %.not, label %7, label %8

7:                                                ; preds = %6
  tail call void @_Z22proj_context_errno_setP6pj_ctxi(ptr noundef %.015, i32 noundef 4097)
  tail call fastcc void @_ZL14proj_log_errorP6pj_ctxPKcS2_(ptr noundef %.015, ptr noundef nonnull @__FUNCTION__.proj_dynamic_datum_get_frame_reference_epoch, ptr noundef nonnull @.str.2)
  br label %28

8:                                                ; preds = %6
  %9 = getelementptr inbounds i8, ptr %1, i64 640
  %10 = load ptr, ptr %9, align 8
  %11 = icmp eq ptr %10, null
  br i1 %11, label %.thread, label %12

12:                                               ; preds = %8
  %13 = tail call ptr @__dynamic_cast(ptr nonnull %10, ptr nonnull @_ZTIN5osgeo4proj4util10BaseObjectE, ptr nonnull @_ZTIN5osgeo4proj5datum29DynamicGeodeticReferenceFrameE, i64 0) #27
  %14 = tail call ptr @__dynamic_cast(ptr nonnull %10, ptr nonnull @_ZTIN5osgeo4proj4util10BaseObjectE, ptr nonnull @_ZTIN5osgeo4proj5datum29DynamicVerticalReferenceFrameE, i64 0) #27
  br label %.thread

.thread:                                          ; preds = %8, %12
  %15 = phi ptr [ %13, %12 ], [ null, %8 ]
  %16 = phi ptr [ %14, %12 ], [ null, %8 ]
  %17 = icmp ne ptr %15, null
  %18 = icmp ne ptr %16, null
  %or.cond = select i1 %17, i1 true, i1 %18
  br i1 %or.cond, label %20, label %19

19:                                               ; preds = %.thread
  tail call fastcc void @_ZL14proj_log_errorP6pj_ctxPKcS2_(ptr noundef %.015, ptr noundef nonnull @__FUNCTION__.proj_dynamic_datum_get_frame_reference_epoch, ptr noundef nonnull @.str.76)
  br label %28

20:                                               ; preds = %.thread
  br i1 %17, label %21, label %23

21:                                               ; preds = %20
  %22 = tail call noundef nonnull align 8 dereferenceable(24) ptr @_ZNK5osgeo4proj5datum29DynamicGeodeticReferenceFrame19frameReferenceEpochEv(ptr noundef nonnull align 8 dereferenceable(80) %15)
  br label %25

23:                                               ; preds = %20
  %24 = tail call noundef nonnull align 8 dereferenceable(24) ptr @_ZNK5osgeo4proj5datum29DynamicVerticalReferenceFrame19frameReferenceEpochEv(ptr noundef nonnull align 8 dereferenceable(80) %16)
  br label %25

25:                                               ; preds = %23, %21
  %26 = phi ptr [ %22, %21 ], [ %24, %23 ]
  %27 = tail call noundef double @_ZNK5osgeo4proj6common7Measure5valueEv(ptr noundef nonnull align 8 dereferenceable(24) %26) #32
  br label %28

28:                                               ; preds = %25, %19, %7
  %.0 = phi double [ %27, %25 ], [ -1.000000e+00, %19 ], [ -1.000000e+00, %7 ]
  ret double %.0
}